; Function Attrs: mustprogress uwtable
define void @_ZN3net20QuicUnackedPacketMap23NotifyAndClearListenersEPNSt7__cxx114listINS_18AckListenerWrapperESaIS3_EEENS_8QuicTime5DeltaE(ptr noundef nonnull readnone align 8 captures(none) dereferenceable(120) %0, ptr noundef %1, i64 %2, i64 %3) local_unnamed_addr #0 align 2 personality ptr @__gxx_personality_v0 {
  %.sroa.08.011 = load ptr, ptr %1, align 8, !tbaa !92
  %.not12 = icmp eq ptr %.sroa.08.011, %1
  br i1 %.not12, label %._crit_edge, label %.lr.ph

._crit_edge.loopexit:                             ; preds = %.lr.ph
  %.pre = load ptr, ptr %1, align 8, !tbaa !92
  br label %._crit_edge

._crit_edge:                                      ; preds = %._crit_edge.loopexit, %4
  %5 = phi ptr [ %.pre, %._crit_edge.loopexit ], [ %.sroa.08.011, %4 ]
  %.not8.i.i = icmp eq ptr %5, %1
  br i1 %.not8.i.i, label %_ZNSt7__cxx114listIN3net18AckListenerWrapperESaIS2_EE5clearEv.exit, label %.lr.ph.i.i

.lr.ph.i.i:                                       ; preds = %._crit_edge, %.lr.ph.i.i
  %.09.i.i = phi ptr [ %6, %.lr.ph.i.i ], [ %5, %._crit_edge ]
  %6 = load ptr, ptr %.09.i.i, align 8, !tbaa !92
  %7 = getelementptr inbounds nuw i8, ptr %.09.i.i, i64 16
  tail call void @_ZN3net18AckListenerWrapperD1Ev(ptr noundef nonnull align 8 dereferenceable(10) %7) #17
  tail call void @_ZdlPv(ptr noundef nonnull %.09.i.i) #19
  %.not.i.i = icmp eq ptr %6, %1
  br i1 %.not.i.i, label %_ZNSt7__cxx114listIN3net18AckListenerWrapperESaIS2_EE5clearEv.exit, label %.lr.ph.i.i, !llvm.loop !127

_ZNSt7__cxx114listIN3net18AckListenerWrapperESaIS2_EE5clearEv.exit: ; preds = %.lr.ph.i.i, %._crit_edge
  %8 = getelementptr inbounds nuw i8, ptr %1, i64 8
  store ptr %1, ptr %8, align 8, !tbaa !128
  store ptr %1, ptr %1, align 8, !tbaa !92
  %9 = getelementptr inbounds nuw i8, ptr %1, i64 16
  store i64 0, ptr %9, align 8, !tbaa !129
  ret void

.lr.ph:                                           ; preds = %4, %.lr.ph
  %.sroa.08.013 = phi ptr [ %.sroa.08.0, %.lr.ph ], [ %.sroa.08.011, %4 ]
  %10 = getelementptr inbounds nuw i8, ptr %.sroa.08.013, i64 16
  %11 = load ptr, ptr %10, align 8, !tbaa !97
  %12 = getelementptr inbounds nuw i8, ptr %.sroa.08.013, i64 24
  %13 = load i16, ptr %12, align 8, !tbaa !100
  %14 = zext i16 %13 to i32
  %15 = load ptr, ptr %11, align 8, !tbaa !102
  %16 = load ptr, ptr %15, align 8
  tail call void %16(ptr noundef nonnull align 8 dereferenceable(12) %11, i32 noundef %14, i64 %2, i64 %3)
  %.sroa.08.0 = load ptr, ptr %.sroa.08.013, align 8, !tbaa !92
  %.not = icmp eq ptr %.sroa.08.0, %1
  br i1 %.not, label %._crit_edge.loopexit, label %.lr.ph
}